target datalayout = "e-m:e-p270:32:32-p271:32:32-p272:64:64-i64:64-i128:128-f80:128-n8:16:32:64-S128"
target triple = "x86_64-pc-linux-gnu"

%struct.BrotliEncoderStateStruct = type { %struct.BrotliEncoderParams, %struct.MemoryManager, i64, %struct.RingBuffer, i64, ptr, i64, i64, i64, i64, i64, [16 x i32], [4 x i32], i16, i8, i8, i8, i8, i64, ptr, %struct.Hasher, [1024 x i32], ptr, i64, ptr, ptr, ptr, ptr, i64, ptr, i64, i64, %union.anon.0, i32, i32, i32, i32 }
%struct.BrotliEncoderParams = type { i32, i32, i32, i32, i64, i64, i32, i32, %struct.BrotliHasherParams, %struct.BrotliDistanceParams, %struct.SharedEncoderDictionary }
%struct.BrotliHasherParams = type { i32, i32, i32, i32 }
%struct.BrotliDistanceParams = type { i32, i32, i32, i32, i64 }
%struct.SharedEncoderDictionary = type { i32, %struct.CompoundDictionary, %struct.ContextualEncoderDictionary, i32 }
%struct.CompoundDictionary = type { i64, i64, [16 x ptr], [16 x ptr], [16 x i64], i64, [16 x ptr] }
%struct.ContextualEncoderDictionary = type { i32, i8, [64 x i8], [64 x ptr], i64, %struct.BrotliEncoderDictionary, ptr }
%struct.BrotliEncoderDictionary = type { ptr, i32, i32, i64, ptr, ptr, ptr, ptr, %struct.BrotliTrie, i32, ptr, ptr, ptr, i64, ptr, i64, ptr, ptr }
%struct.BrotliTrie = type { ptr, i64, i64, %struct.BrotliTrieNode }
%struct.BrotliTrieNode = type { i8, i8, i8, i32, i32 }
%struct.MemoryManager = type { ptr, ptr, ptr }
%struct.RingBuffer = type { i32, i32, i32, i32, i32, i32, ptr, ptr }
%struct.Hasher = type { %struct.HasherCommon, %union.anon }
%struct.HasherCommon = type { [4 x ptr], i32, i64, i64, %struct.BrotliHasherParams, i32 }
%union.anon = type { %struct.H42 }
%struct.H42 = type { [512 x i16], i64, [2 x ptr], ptr }
%union.anon.0 = type { [2 x i64] }

; Function Attrs: nounwind uwtable
define internal void @BrotliEncoderCleanupParams(ptr noundef %0, ptr noundef %1) #0 {
  %3 = alloca ptr, align 8
  %4 = alloca ptr, align 8
  store ptr %0, ptr %3, align 8, !tbaa !73
  store ptr %1, ptr %4, align 8, !tbaa !129
  %5 = load ptr, ptr %3, align 8, !tbaa !73
  %6 = load ptr, ptr %4, align 8, !tbaa !129
  %7 = getelementptr inbounds nuw %struct.BrotliEncoderParams, ptr %6, i32 0, i32 10
  call void @BrotliCleanupSharedEncoderDictionary(ptr noundef %5, ptr noundef %7)
  ret void
}

; Function Attrs: alwaysinline nounwind uwtable
define internal void @DestroyHasher(ptr noundef %0, ptr noundef %1) #3 {
  %3 = alloca ptr, align 8
  %4 = alloca ptr, align 8
  store ptr %0, ptr %3, align 8, !tbaa !73
  store ptr %1, ptr %4, align 8, !tbaa !48
  %5 = load ptr, ptr %4, align 8, !tbaa !48
  %6 = getelementptr inbounds nuw %struct.Hasher, ptr %5, i32 0, i32 0
  %7 = getelementptr inbounds nuw %struct.HasherCommon, ptr %6, i32 0, i32 0
  %8 = getelementptr inbounds [4 x ptr], ptr %7, i64 0, i64 0
  %9 = load ptr, ptr %8, align 8, !tbaa !48
  %10 = icmp ne ptr %9, null
  br i1 %10, label %11, label %22

11:                                               ; preds = %2
  %12 = load ptr, ptr %3, align 8, !tbaa !73
  %13 = load ptr, ptr %4, align 8, !tbaa !48
  %14 = getelementptr inbounds nuw %struct.Hasher, ptr %13, i32 0, i32 0
  %15 = getelementptr inbounds nuw %struct.HasherCommon, ptr %14, i32 0, i32 0
  %16 = getelementptr inbounds [4 x ptr], ptr %15, i64 0, i64 0
  %17 = load ptr, ptr %16, align 8, !tbaa !48
  call void @BrotliFree(ptr noundef %12, ptr noundef %17)
  %18 = load ptr, ptr %4, align 8, !tbaa !48
  %19 = getelementptr inbounds nuw %struct.Hasher, ptr %18, i32 0, i32 0
  %20 = getelementptr inbounds nuw %struct.HasherCommon, ptr %19, i32 0, i32 0
  %21 = getelementptr inbounds [4 x ptr], ptr %20, i64 0, i64 0
  store ptr null, ptr %21, align 8, !tbaa !48
  br label %22

22:                                               ; preds = %11, %2
  %23 = load ptr, ptr %4, align 8, !tbaa !48
  %24 = getelementptr inbounds nuw %struct.Hasher, ptr %23, i32 0, i32 0
  %25 = getelementptr inbounds nuw %struct.HasherCommon, ptr %24, i32 0, i32 0
  %26 = getelementptr inbounds [4 x ptr], ptr %25, i64 0, i64 1
  %27 = load ptr, ptr %26, align 8, !tbaa !48
  %28 = icmp ne ptr %27, null
  br i1 %28, label %29, label %40

29:                                               ; preds = %22
  %30 = load ptr, ptr %3, align 8, !tbaa !73
  %31 = load ptr, ptr %4, align 8, !tbaa !48
  %32 = getelementptr inbounds nuw %struct.Hasher, ptr %31, i32 0, i32 0
  %33 = getelementptr inbounds nuw %struct.HasherCommon, ptr %32, i32 0, i32 0
  %34 = getelementptr inbounds [4 x ptr], ptr %33, i64 0, i64 1
  %35 = load ptr, ptr %34, align 8, !tbaa !48
  call void @BrotliFree(ptr noundef %30, ptr noundef %35)
  %36 = load ptr, ptr %4, align 8, !tbaa !48
  %37 = getelementptr inbounds nuw %struct.Hasher, ptr %36, i32 0, i32 0
  %38 = getelementptr inbounds nuw %struct.HasherCommon, ptr %37, i32 0, i32 0
  %39 = getelementptr inbounds [4 x ptr], ptr %38, i64 0, i64 1
  store ptr null, ptr %39, align 8, !tbaa !48
  br label %40

40:                                               ; preds = %29, %22
  %41 = load ptr, ptr %4, align 8, !tbaa !48
  %42 = getelementptr inbounds nuw %struct.Hasher, ptr %41, i32 0, i32 0
  %43 = getelementptr inbounds nuw %struct.HasherCommon, ptr %42, i32 0, i32 0
  %44 = getelementptr inbounds [4 x ptr], ptr %43, i64 0, i64 2
  %45 = load ptr, ptr %44, align 8, !tbaa !48
  %46 = icmp ne ptr %45, null
  br i1 %46, label %47, label %58

47:                                               ; preds = %40
  %48 = load ptr, ptr %3, align 8, !tbaa !73
  %49 = load ptr, ptr %4, align 8, !tbaa !48
  %50 = getelementptr inbounds nuw %struct.Hasher, ptr %49, i32 0, i32 0
  %51 = getelementptr inbounds nuw %struct.HasherCommon, ptr %50, i32 0, i32 0
  %52 = getelementptr inbounds [4 x ptr], ptr %51, i64 0, i64 2
  %53 = load ptr, ptr %52, align 8, !tbaa !48
  call void @BrotliFree(ptr noundef %48, ptr noundef %53)
  %54 = load ptr, ptr %4, align 8, !tbaa !48
  %55 = getelementptr inbounds nuw %struct.Hasher, ptr %54, i32 0, i32 0
  %56 = getelementptr inbounds nuw %struct.HasherCommon, ptr %55, i32 0, i32 0
  %57 = getelementptr inbounds [4 x ptr], ptr %56, i64 0, i64 2
  store ptr null, ptr %57, align 8, !tbaa !48
  br label %58

58:                                               ; preds = %47, %40
  %59 = load ptr, ptr %4, align 8, !tbaa !48
  %60 = getelementptr inbounds nuw %struct.Hasher, ptr %59, i32 0, i32 0
  %61 = getelementptr inbounds nuw %struct.HasherCommon, ptr %60, i32 0, i32 0
  %62 = getelementptr inbounds [4 x ptr], ptr %61, i64 0, i64 3
  %63 = load ptr, ptr %62, align 8, !tbaa !48
  %64 = icmp ne ptr %63, null
  br i1 %64, label %65, label %76

65:                                               ; preds = %58
  %66 = load ptr, ptr %3, align 8, !tbaa !73
  %67 = load ptr, ptr %4, align 8, !tbaa !48
  %68 = getelementptr inbounds nuw %struct.Hasher, ptr %67, i32 0, i32 0
  %69 = getelementptr inbounds nuw %struct.HasherCommon, ptr %68, i32 0, i32 0
  %70 = getelementptr inbounds [4 x ptr], ptr %69, i64 0, i64 3
  %71 = load ptr, ptr %70, align 8, !tbaa !48
  call void @BrotliFree(ptr noundef %66, ptr noundef %71)
  %72 = load ptr, ptr %4, align 8, !tbaa !48
  %73 = getelementptr inbounds nuw %struct.Hasher, ptr %72, i32 0, i32 0
  %74 = getelementptr inbounds nuw %struct.HasherCommon, ptr %73, i32 0, i32 0
  %75 = getelementptr inbounds [4 x ptr], ptr %74, i64 0, i64 3
  store ptr null, ptr %75, align 8, !tbaa !48
  br label %76

76:                                               ; preds = %65, %58
  ret void
}

; Function Attrs: alwaysinline nounwind uwtable
define internal void @RingBufferFree(ptr noundef %0, ptr noundef %1) #3 {
  %3 = alloca ptr, align 8
  %4 = alloca ptr, align 8
  store ptr %0, ptr %3, align 8, !tbaa !73
  store ptr %1, ptr %4, align 8, !tbaa !89
  %5 = load ptr, ptr %3, align 8, !tbaa !73
  %6 = load ptr, ptr %4, align 8, !tbaa !89
  %7 = getelementptr inbounds nuw %struct.RingBuffer, ptr %6, i32 0, i32 6
  %8 = load ptr, ptr %7, align 8, !tbaa !170
  call void @BrotliFree(ptr noundef %5, ptr noundef %8)
  %9 = load ptr, ptr %4, align 8, !tbaa !89
  %10 = getelementptr inbounds nuw %struct.RingBuffer, ptr %9, i32 0, i32 6
  store ptr null, ptr %10, align 8, !tbaa !170
  ret void
}

; Function Attrs: nounwind uwtable
define internal void @BrotliEncoderCleanupState(ptr noundef %0) #0 {
  %2 = alloca ptr, align 8
  %3 = alloca ptr, align 8
  store ptr %0, ptr %2, align 8, !tbaa !3
  call void @llvm.lifetime.start.p0(i64 8, ptr %3) #10
  %4 = load ptr, ptr %2, align 8, !tbaa !3
  %5 = getelementptr inbounds nuw %struct.BrotliEncoderStateStruct, ptr %4, i32 0, i32 1
  store ptr %5, ptr %3, align 8, !tbaa !73
  %6 = load ptr, ptr %3, align 8, !tbaa !73
  %7 = load ptr, ptr %2, align 8, !tbaa !3
  %8 = getelementptr inbounds nuw %struct.BrotliEncoderStateStruct, ptr %7, i32 0, i32 19
  %9 = load ptr, ptr %8, align 8, !tbaa !58
  call void @BrotliFree(ptr noundef %6, ptr noundef %9)
  %10 = load ptr, ptr %2, align 8, !tbaa !3
  %11 = getelementptr inbounds nuw %struct.BrotliEncoderStateStruct, ptr %10, i32 0, i32 19
  store ptr null, ptr %11, align 8, !tbaa !58
  %12 = load ptr, ptr %3, align 8, !tbaa !73
  %13 = load ptr, ptr %2, align 8, !tbaa !3
  %14 = getelementptr inbounds nuw %struct.BrotliEncoderStateStruct, ptr %13, i32 0, i32 5
  %15 = load ptr, ptr %14, align 8, !tbaa !71
  call void @BrotliFree(ptr noundef %12, ptr noundef %15)
  %16 = load ptr, ptr %2, align 8, !tbaa !3
  %17 = getelementptr inbounds nuw %struct.BrotliEncoderStateStruct, ptr %16, i32 0, i32 5
  store ptr null, ptr %17, align 8, !tbaa !71
  %18 = load ptr, ptr %3, align 8, !tbaa !73
  %19 = load ptr, ptr %2, align 8, !tbaa !3
  %20 = getelementptr inbounds nuw %struct.BrotliEncoderStateStruct, ptr %19, i32 0, i32 3
  call void @RingBufferFree(ptr noundef %18, ptr noundef %20)
  %21 = load ptr, ptr %3, align 8, !tbaa !73
  %22 = load ptr, ptr %2, align 8, !tbaa !3
  %23 = getelementptr inbounds nuw %struct.BrotliEncoderStateStruct, ptr %22, i32 0, i32 20
  call void @DestroyHasher(ptr noundef %21, ptr noundef %23)
  %24 = load ptr, ptr %3, align 8, !tbaa !73
  %25 = load ptr, ptr %2, align 8, !tbaa !3
  %26 = getelementptr inbounds nuw %struct.BrotliEncoderStateStruct, ptr %25, i32 0, i32 22
  %27 = load ptr, ptr %26, align 8, !tbaa !59
  call void @BrotliFree(ptr noundef %24, ptr noundef %27)
  %28 = load ptr, ptr %2, align 8, !tbaa !3
  %29 = getelementptr inbounds nuw %struct.BrotliEncoderStateStruct, ptr %28, i32 0, i32 22
  store ptr null, ptr %29, align 8, !tbaa !59
  %30 = load ptr, ptr %3, align 8, !tbaa !73
  %31 = load ptr, ptr %2, align 8, !tbaa !3
  %32 = getelementptr inbounds nuw %struct.BrotliEncoderStateStruct, ptr %31, i32 0, i32 24
  %33 = load ptr, ptr %32, align 8, !tbaa !61
  call void @BrotliFree(ptr noundef %30, ptr noundef %33)
  %34 = load ptr, ptr %2, align 8, !tbaa !3
  %35 = getelementptr inbounds nuw %struct.BrotliEncoderStateStruct, ptr %34, i32 0, i32 24
  store ptr null, ptr %35, align 8, !tbaa !61
  %36 = load ptr, ptr %3, align 8, !tbaa !73
  %37 = load ptr, ptr %2, align 8, !tbaa !3
  %38 = getelementptr inbounds nuw %struct.BrotliEncoderStateStruct, ptr %37, i32 0, i32 25
  %39 = load ptr, ptr %38, align 8, !tbaa !62
  call void @BrotliFree(ptr noundef %36, ptr noundef %39)
  %40 = load ptr, ptr %2, align 8, !tbaa !3
  %41 = getelementptr inbounds nuw %struct.BrotliEncoderStateStruct, ptr %40, i32 0, i32 25
  store ptr null, ptr %41, align 8, !tbaa !62
  %42 = load ptr, ptr %3, align 8, !tbaa !73
  %43 = load ptr, ptr %2, align 8, !tbaa !3
  %44 = getelementptr inbounds nuw %struct.BrotliEncoderStateStruct, ptr %43, i32 0, i32 26
  %45 = load ptr, ptr %44, align 8, !tbaa !63
  call void @BrotliFree(ptr noundef %42, ptr noundef %45)
  %46 = load ptr, ptr %2, align 8, !tbaa !3
  %47 = getelementptr inbounds nuw %struct.BrotliEncoderStateStruct, ptr %46, i32 0, i32 26
  store ptr null, ptr %47, align 8, !tbaa !63
  %48 = load ptr, ptr %3, align 8, !tbaa !73
  %49 = load ptr, ptr %2, align 8, !tbaa !3
  %50 = getelementptr inbounds nuw %struct.BrotliEncoderStateStruct, ptr %49, i32 0, i32 27
  %51 = load ptr, ptr %50, align 8, !tbaa !64
  call void @BrotliFree(ptr noundef %48, ptr noundef %51)
  %52 = load ptr, ptr %2, align 8, !tbaa !3
  %53 = getelementptr inbounds nuw %struct.BrotliEncoderStateStruct, ptr %52, i32 0, i32 27
  store ptr null, ptr %53, align 8, !tbaa !64
  %54 = load ptr, ptr %3, align 8, !tbaa !73
  %55 = load ptr, ptr %2, align 8, !tbaa !3
  %56 = getelementptr inbounds nuw %struct.BrotliEncoderStateStruct, ptr %55, i32 0, i32 0
  call void @BrotliEncoderCleanupParams(ptr noundef %54, ptr noundef %56)
  call void @llvm.lifetime.end.p0(i64 8, ptr %3) #10
  ret void
}

; Function Attrs: nounwind uwtable
define void @BrotliEncoderDestroyInstance(ptr noundef %0) #0 {
  %2 = alloca ptr, align 8
  store ptr %0, ptr %2, align 8, !tbaa !3
  %3 = load ptr, ptr %2, align 8, !tbaa !3
  %4 = icmp ne ptr %3, null
  br i1 %4, label %6, label %5

5:                                                ; preds = %1
  br label %11

6:                                                ; preds = %1
  %7 = load ptr, ptr %2, align 8, !tbaa !3
  call void @BrotliEncoderCleanupState(ptr noundef %7)
  %8 = load ptr, ptr %2, align 8, !tbaa !3
  %9 = load ptr, ptr %2, align 8, !tbaa !3
  %10 = getelementptr inbounds nuw %struct.BrotliEncoderStateStruct, ptr %9, i32 0, i32 1
  call void @BrotliBootstrapFree(ptr noundef %8, ptr noundef %10)
  br label %11

11:                                               ; preds = %5, %6
  ret void
}