; Function Attrs: nounwind uwtable
define void @BrotliEncoderDestroyInstance(ptr noundef %0) local_unnamed_addr #1 {
  %.not = icmp eq ptr %0, null
  br i1 %.not, label %36, label %2

2:                                                ; preds = %1
  %3 = getelementptr inbounds nuw i8, ptr %0, i64 1400
  %4 = getelementptr inbounds nuw i8, ptr %0, i64 1624
  %5 = load ptr, ptr %4, align 8, !tbaa !60
  tail call void @BrotliFree(ptr noundef nonnull %3, ptr noundef %5) #18
  store ptr null, ptr %4, align 8, !tbaa !60
  %6 = getelementptr inbounds nuw i8, ptr %0, i64 1480
  %7 = load ptr, ptr %6, align 8, !tbaa !61
  tail call void @BrotliFree(ptr noundef nonnull %3, ptr noundef %7) #18
  store ptr null, ptr %6, align 8, !tbaa !61
  %8 = getelementptr inbounds nuw i8, ptr %0, i64 1456
  %9 = load ptr, ptr %8, align 8, !tbaa !62
  tail call void @BrotliFree(ptr noundef nonnull %3, ptr noundef %9) #18
  store ptr null, ptr %8, align 8, !tbaa !62
  %10 = getelementptr inbounds nuw i8, ptr %0, i64 1632
  %11 = load ptr, ptr %10, align 8, !tbaa !63
  %.not.i.i = icmp eq ptr %11, null
  br i1 %.not.i.i, label %13, label %12

12:                                               ; preds = %2
  tail call void @BrotliFree(ptr noundef nonnull %3, ptr noundef nonnull %11) #18
  store ptr null, ptr %10, align 8, !tbaa !63
  br label %13

13:                                               ; preds = %12, %2
  %14 = getelementptr inbounds nuw i8, ptr %0, i64 1640
  %15 = load ptr, ptr %14, align 8, !tbaa !63
  %.not19.i.i = icmp eq ptr %15, null
  br i1 %.not19.i.i, label %17, label %16

16:                                               ; preds = %13
  tail call void @BrotliFree(ptr noundef nonnull %3, ptr noundef nonnull %15) #18
  store ptr null, ptr %14, align 8, !tbaa !63
  br label %17

17:                                               ; preds = %16, %13
  %18 = getelementptr inbounds nuw i8, ptr %0, i64 1648
  %19 = load ptr, ptr %18, align 8, !tbaa !63
  %.not20.i.i = icmp eq ptr %19, null
  br i1 %.not20.i.i, label %21, label %20

20:                                               ; preds = %17
  tail call void @BrotliFree(ptr noundef nonnull %3, ptr noundef nonnull %19) #18
  store ptr null, ptr %18, align 8, !tbaa !63
  br label %21

21:                                               ; preds = %20, %17
  %22 = getelementptr inbounds nuw i8, ptr %0, i64 1656
  %23 = load ptr, ptr %22, align 8, !tbaa !63
  %.not21.i.i = icmp eq ptr %23, null
  br i1 %.not21.i.i, label %BrotliEncoderCleanupState.exit, label %24

24:                                               ; preds = %21
  tail call void @BrotliFree(ptr noundef nonnull %3, ptr noundef nonnull %23) #18
  store ptr null, ptr %22, align 8, !tbaa !63
  br label %BrotliEncoderCleanupState.exit

BrotliEncoderCleanupState.exit:                   ; preds = %21, %24
  %25 = getelementptr inbounds nuw i8, ptr %0, i64 6864
  %26 = load ptr, ptr %25, align 8, !tbaa !64
  tail call void @BrotliFree(ptr noundef nonnull %3, ptr noundef %26) #18
  store ptr null, ptr %25, align 8, !tbaa !64
  %27 = getelementptr inbounds nuw i8, ptr %0, i64 6880
  %28 = load ptr, ptr %27, align 8, !tbaa !65
  tail call void @BrotliFree(ptr noundef nonnull %3, ptr noundef %28) #18
  store ptr null, ptr %27, align 8, !tbaa !65
  %29 = getelementptr inbounds nuw i8, ptr %0, i64 6888
  %30 = load ptr, ptr %29, align 8, !tbaa !66
  tail call void @BrotliFree(ptr noundef nonnull %3, ptr noundef %30) #18
  store ptr null, ptr %29, align 8, !tbaa !66
  %31 = getelementptr inbounds nuw i8, ptr %0, i64 6896
  %32 = load ptr, ptr %31, align 8, !tbaa !67
  tail call void @BrotliFree(ptr noundef nonnull %3, ptr noundef %32) #18
  store ptr null, ptr %31, align 8, !tbaa !67
  %33 = getelementptr inbounds nuw i8, ptr %0, i64 6904
  %34 = load ptr, ptr %33, align 8, !tbaa !68
  tail call void @BrotliFree(ptr noundef nonnull %3, ptr noundef %34) #18
  store ptr null, ptr %33, align 8, !tbaa !68
  %35 = getelementptr inbounds nuw i8, ptr %0, i64 80
  tail call void @BrotliCleanupSharedEncoderDictionary(ptr noundef nonnull %3, ptr noundef nonnull %35) #18
  tail call void @BrotliBootstrapFree(ptr noundef nonnull %0, ptr noundef nonnull %3) #18
  br label %36

36:                                               ; preds = %1, %BrotliEncoderCleanupState.exit
  ret void
}